; Function Attrs: mustprogress nofree norecurse nosync nounwind willreturn memory(argmem: readwrite) uwtable
define dso_local void @_ZN4Json5ValueC2ERKNS_12StaticStringE(ptr nocapture noundef nonnull align 8 dereferenceable(32) %0, ptr nocapture noundef nonnull readonly align 8 dereferenceable(8) %1) unnamed_addr #11 align 2 {
  %3 = getelementptr inbounds i8, ptr %0, i64 8
  %4 = load i16, ptr %3, align 8
  %5 = and i16 %4, -512
  %6 = or disjoint i16 %5, 4
  store i16 %6, ptr %3, align 8
  %7 = getelementptr inbounds i8, ptr %0, i64 16
  tail call void @llvm.memset.p0.i64(ptr noundef nonnull align 8 dereferenceable(16) %7, i8 0, i64 16, i1 false)
  %8 = load ptr, ptr %1, align 8
  store ptr %8, ptr %0, align 8
  ret void
}